((dp0
S'nm0749263'
p1
I0
sS'nm1320827'
p2
I36
sS'nm0441042'
p3
I11
sS'nm0933988'
p4
I1
sS'nm0000702'
p5
I2
sS'nm0000701'
p6
I3
sS'nm0719444'
p7
I4
sS'nm0434712'
p8
I5
sS'nm0093589'
p9
I6
sS'nm0000501'
p10
I9
sS'nm1706767'
p11
I41
sS'nm0447695'
p12
I7
sS'nm0671567'
p13
I8
sS'nm0565250'
p14
I42
sS'nm1144419'
p15
I15
sS'nm0059431'
p16
I10
sS'nm0001337'
p17
I44
sS'nm0066144'
p18
I52
sS'nm2699047'
p19
I45
sS'nm1727100'
p20
I39
sS'nm2002649'
p21
I51
sS'nm1378320'
p22
I46
sS'nm1631269'
p23
I56
sS'nm2355635'
p24
I12
sS'nm0008533'
p25
I57
sS'nm0785227'
p26
I47
sS'nm0290556'
p27
I13
sS'nm0000659'
p28
I48
sS'nm2255973'
p29
I14
sS'nm0170306'
p30
I38
sS'nm0000139'
p31
I16
sS'nm1374980'
p32
I17
sS'nm1325419'
p33
I18
sS'nm0798971'
p34
I19
sS'nm0006969'
p35
I20
sS'nm0001288'
p36
I53
sS'nm0736622'
p37
I21
sS'nm0931329'
p38
I50
sS'nm0126284'
p39
I54
sS'nm0001435'
p40
I22
sS'nm0310966'
p41
I55
sS'nm0170550'
p42
I37
sS'nm0748620'
p43
I23
sS'nm0670408'
p44
I24
sS'nm0910607'
p45
I25
sS'nm0267506'
p46
I49
sS'nm0068338'
p47
I58
sS'nm1055413'
p48
I26
sS'nm0397171'
p49
I59
sS'nm0001191'
p50
I40
sS'nm0330687'
p51
I27
sS'nm0005182'
p52
I62
sS'nm0503567'
p53
I60
sS'nm3255459'
p54
I43
sS'nm1478285'
p55
I28
sS'nm0429069'
p56
I61
sS'nm0732497'
p57
I29
sS'nm0135221'
p58
I30
sS'nm0296545'
p59
I31
sS'nm2053085'
p60
I32
sS'nm1904886'
p61
I33
sS'nm0001099'
p62
I34
sS'nm0051509'
p63
I35
sS'nm0000234'
p64
I63
s(lp65
g1
ag4
ag5
ag6
ag7
ag8
ag9
ag12
ag13
ag10
ag16
ag3
ag24
ag27
ag29
ag15
ag31
ag32
ag33
ag34
ag35
ag37
ag40
ag43
ag44
ag45
ag48
ag51
ag55
ag57
ag58
ag59
ag60
ag61
ag62
ag63
ag2
ag42
ag30
ag20
ag50
ag11
ag14
ag54
ag17
ag19
ag22
ag26
ag28
ag46
ag38
ag21
ag18
ag36
ag39
ag41
ag23
ag25
ag47
ag49
ag53
ag56
ag52
ag64
atp66
.