((dp0
S'Michelle Williams'
p1
S'nm0931329'
p2
sS'Jillian Bell'
p3
S'nm3255459'
p4
sS'Alistair Abell'
p5
S'nm0008533'
p6
sS'Cameron Diaz'
p7
S'nm0000139'
p8
sS'Dave Franco'
p9
S'nm2002649'
p10
sS'Anna Kendrick'
p11
S'nm0447695'
p12
sS'Reese Witherspoon'
p13
S'nm0000702'
p14
sS'Melissa McCarthy'
p15
S'nm0565250'
p16
sS'Christoph Waltz'
p17
S'nm0910607'
p18
sS'Gary Cole'
p19
S'nm0170550'
p20
sS'Aaron Abrams'
p21
S'nm1378320'
p22
sS'Chlo\xc3\xab Grace Moretz'
p23
S'nm1631269'
p24
sS'Nick Frost'
p25
S'nm0296545'
p26
sS'Bryce Dallas Howard'
p27
S'nm0397171'
p28
sS'Rashida Jones'
p29
S'nm0429069'
p30
sS'Leslie Mann'
p31
S'nm0005182'
p32
sS'Kristen Wiig'
p33
S'nm1325419'
p34
sS'Craig Robinson'
p35
S'nm0732497'
p36
sS'Mia Stallard'
p37
S'nm1904886'
p38
sS'Michael Fassbender'
p39
S'nm1055413'
p40
sS'Kristen Bell'
p41
S'nm0068338'
p42
sS'Kate Winslet'
p43
S'nm0000701'
p44
sS'Randall Park'
p45
S'nm1320827'
p46
sS'Danny McBride'
p47
S'nm1144419'
p48
sS'Lisa Kudrow'
p49
S'nm0001435'
p50
sS'Matt Bomer'
p51
S'nm0093589'
p52
sS'Ari Graynor'
p53
S'nm0310966'
p54
sS'Paul Rudd'
p55
S'nm0748620'
p56
sS'Donald Glover'
p57
S'nm2255973'
p58
sS'Sarah Silverman'
p59
S'nm0798971'
p60
sS'Jay Chou'
p61
S'nm1727100'
p62
sS'Mark Ruffalo'
p63
S'nm0749263'
p64
sS'James Franco'
p65
S'nm0290556'
p66
sS'Julene Renee'
p67
S'nm0719444'
p68
sS'Barbra Streisand'
p69
S'nm0000659'
p70
sS'Logan Lerman'
p71
S'nm0503567'
p72
sS'Charlize Theron'
p73
S'nm0000234'
p74
sS'Kelsey Grammer'
p75
S'nm0001288'
p76
sS'Eric Bana'
p77
S'nm0051509'
p78
sS'Gerry Bednob'
p79
S'nm0066144'
p80
sS'Elizabeth Banks'
p81
S'nm0006969'
p82
sS'Ben Schwartz'
p83
S'nm2355635'
p84
sS'Brittany Ross'
p85
S'nm2699047'
p86
sS'John Kani'
p87
S'nm0434712'
p88
sS'Andy Serkis'
p89
S'nm0785227'
p90
sS'Zac Efron'
p91
S'nm1374980'
p92
sS'Rainn Wilson'
p93
S'nm0933988'
p94
sS'Rose Byrne'
p95
S'nm0126284'
p96
sS'Zabryna Guevara'
p97
S'nm1478285'
p98
sS'Katherine Heigl'
p99
S'nm0001337'
p100
sS'Florence Kasumba'
p101
S'nm0441042'
p102
sS'Lizzy Caplan'
p103
S'nm0135221'
p104
sS'Adam Sandler'
p105
S'nm0001191'
p106
sS'Anna Faris'
p107
S'nm0267506'
p108
sS'June Diane Raphael'
p109
S'nm2053085'
p110
sS'Jeff Daniels'
p111
S'nm0001099'
p112
sS'Jay Baruchel'
p113
S'nm0059431'
p114
sS'Michael Pe\xc3\xb1a'
p115
S'nm0671567'
p116
sS'Simon Pegg'
p117
S'nm0670408'
p118
sS'Jonah Hill'
p119
S'nm1706767'
p120
sS'Stephen Colbert'
p121
S'nm0170306'
p122
sS'Joseph Gordon-Levitt'
p123
S'nm0330687'
p124
sS'Seth Rogen'
p125
S'nm0736622'
p126
sS'Ray Liotta'
p127
S'nm0000501'
p128
s(dp129
g64
g63
sg46
g45
sg80
g79
sg94
g93
sg14
g13
sg44
g43
sg68
g67
sg88
g87
sg52
g51
sg128
g127
sg116
g115
sg120
g119
sg12
g11
sg20
g19
sg16
g15
sg106
g105
sg114
g113
sg100
g99
sg102
g101
sg86
g85
sg18
g17
sg22
g21
sg110
g109
sg84
g83
sg90
g89
sg66
g65
sg70
g69
sg108
g107
sg48
g47
sg122
g121
sg62
g61
sg8
g7
sg92
g91
sg34
g33
sg60
g59
sg82
g81
sg76
g75
sg126
g125
sg2
g1
sg96
g95
sg50
g49
sg54
g53
sg24
g23
sg56
g55
sg118
g117
sg6
g5
sg42
g41
sg40
g39
sg28
g27
sg124
g123
sg38
g37
sg72
g71
sg4
g3
sg58
g57
sg98
g97
sg30
g29
sg36
g35
sg104
g103
sg26
g25
sg10
g9
sg32
g31
sg112
g111
sg78
g77
sg74
g73
stp130
.