((dp0
S'Sci-Fi'
p1
I1
sS'Crime'
p2
I2
sS'Romance'
p3
I3
sS'\\N'
p4
I4
sS'Animation'
p5
I5
sS'Music'
p6
I6
sS'Comedy'
p7
I8
sS'War'
p8
I10
sS'Horror'
p9
I15
sS'Adventure'
p10
I18
sS'News'
p11
I19
sS'Thriller'
p12
I21
sS'Western'
p13
I22
sS'Mystery'
p14
I0
sS'Drama'
p15
I12
sS'Action'
p16
I7
sS'Documentary'
p17
I9
sS'Musical'
p18
I16
sS'History'
p19
I11
sS'Family'
p20
I14
sS'Fantasy'
p21
I17
sS'Sport'
p22
I20
sS'Biography'
p23
I13
s(lp24
g14
ag1
ag2
ag3
ag4
ag5
ag6
ag16
ag7
ag17
ag8
ag19
ag15
ag23
ag20
ag9
ag18
ag21
ag10
ag11
ag22
ag12
ag13
atp25
.